; Function Attrs: mustprogress nofree norecurse nosync nounwind willreturn memory(write, argmem: readwrite, inaccessiblemem: none) uwtable
define noundef zeroext i1 @_ZN3net14QuicDataWriter11WriteUInt48Em(ptr noundef nonnull align 8 captures(none) dereferenceable(24) %0, i64 noundef %1) local_unnamed_addr #3 align 2 personality ptr @__gxx_personality_v0 {
  %3 = getelementptr inbounds nuw i8, ptr %0, i64 16
  %4 = load i64, ptr %3, align 8, !tbaa !11
  %5 = getelementptr inbounds nuw i8, ptr %0, i64 8
  %6 = load i64, ptr %5, align 8, !tbaa !10
  %7 = icmp ugt i64 %4, %6
  %8 = sub nuw i64 %6, %4
  %9 = icmp ult i64 %8, 4
  %or.cond.i.i.i = select i1 %7, i1 true, i1 %9
  %10 = load ptr, ptr %0, align 8
  %.not.i.i.not7 = icmp eq ptr %10, null
  %.not.i.i.not = select i1 %or.cond.i.i.i, i1 true, i1 %.not.i.i.not7
  br i1 %.not.i.i.not, label %_ZN3net14QuicDataWriter11WriteUInt32Ej.exit, label %11

11:                                               ; preds = %2
  %12 = getelementptr inbounds nuw i8, ptr %10, i64 %4
  %13 = trunc i64 %1 to i32
  store i32 %13, ptr %12, align 1
  %14 = load i64, ptr %3, align 8, !tbaa !11
  %15 = add i64 %14, 4
  store i64 %15, ptr %3, align 8, !tbaa !11
  %16 = load i64, ptr %5, align 8, !tbaa !10
  %17 = icmp ugt i64 %15, %16
  %18 = sub nuw i64 %16, %15
  %19 = icmp ult i64 %18, 2
  %or.cond.i.i.i4 = select i1 %17, i1 true, i1 %19
  %20 = load ptr, ptr %0, align 8
  %.not.i.i6.not8 = icmp eq ptr %20, null
  %.not.i.i6.not = select i1 %or.cond.i.i.i4, i1 true, i1 %.not.i.i6.not8
  br i1 %.not.i.i6.not, label %_ZN3net14QuicDataWriter11WriteUInt32Ej.exit, label %21

21:                                               ; preds = %11
  %22 = getelementptr inbounds nuw i8, ptr %20, i64 %15
  %23 = lshr i64 %1, 32
  %24 = trunc i64 %23 to i16
  store i16 %24, ptr %22, align 1
  %25 = load i64, ptr %3, align 8, !tbaa !11
  %26 = add i64 %25, 2
  store i64 %26, ptr %3, align 8, !tbaa !11
  br label %_ZN3net14QuicDataWriter11WriteUInt32Ej.exit

_ZN3net14QuicDataWriter11WriteUInt32Ej.exit:      ; preds = %21, %11, %2
  %27 = phi i1 [ false, %2 ], [ false, %11 ], [ true, %21 ]
  ret i1 %27
}